; Function Attrs: nounwind uwtable
define void @ossl_qrx_inject_urxe(ptr noundef captures(none) %0, ptr noundef initializes((32, 48), (288, 289)) %1) local_unnamed_addr #0 {
  %3 = getelementptr inbounds nuw i8, ptr %1, i64 32
  %4 = getelementptr inbounds nuw i8, ptr %1, i64 288
  store i8 0, ptr %4, align 8, !tbaa !57
  %5 = getelementptr inbounds nuw i8, ptr %0, i64 48
  %6 = getelementptr inbounds nuw i8, ptr %0, i64 56
  tail call void @llvm.memset.p0.i64(ptr noundef nonnull align 8 dereferenceable(16) %3, i8 0, i64 16, i1 false)
  %7 = load ptr, ptr %6, align 8, !tbaa !52
  %.not.i = icmp eq ptr %7, null
  br i1 %.not.i, label %9, label %8

8:                                                ; preds = %2
  store ptr %1, ptr %7, align 8, !tbaa !49
  br label %9

9:                                                ; preds = %8, %2
  %10 = getelementptr inbounds nuw i8, ptr %1, i64 8
  store ptr %7, ptr %10, align 8, !tbaa !53
  store ptr null, ptr %1, align 8, !tbaa !49
  store ptr %1, ptr %6, align 8, !tbaa !52
  %11 = load ptr, ptr %5, align 8, !tbaa !48
  %12 = icmp eq ptr %11, null
  br i1 %12, label %13, label %ossl_list_urxe_insert_tail.exit

13:                                               ; preds = %9
  store ptr %1, ptr %5, align 8, !tbaa !48
  br label %ossl_list_urxe_insert_tail.exit

ossl_list_urxe_insert_tail.exit:                  ; preds = %9, %13
  %14 = getelementptr inbounds nuw i8, ptr %0, i64 64
  %15 = load i64, ptr %14, align 8, !tbaa !54
  %16 = add i64 %15, 1
  store i64 %16, ptr %14, align 8, !tbaa !54
  %17 = getelementptr inbounds nuw i8, ptr %0, i64 1064
  %18 = load ptr, ptr %17, align 8, !tbaa !58
  %.not = icmp eq ptr %18, null
  br i1 %.not, label %27, label %19

19:                                               ; preds = %ossl_list_urxe_insert_tail.exit
  %20 = getelementptr inbounds nuw i8, ptr %1, i64 296
  %21 = getelementptr inbounds nuw i8, ptr %1, i64 16
  %22 = load i64, ptr %21, align 8, !tbaa !59
  %23 = getelementptr inbounds nuw i8, ptr %0, i64 1080
  %24 = load ptr, ptr %23, align 8, !tbaa !60
  %25 = getelementptr inbounds nuw i8, ptr %0, i64 1072
  %26 = load ptr, ptr %25, align 8, !tbaa !61
  tail call void %18(i32 noundef 0, i32 noundef 1, i32 noundef 512, ptr noundef nonnull %20, i64 noundef %22, ptr noundef %24, ptr noundef %26) #11
  br label %27

27:                                               ; preds = %19, %ossl_list_urxe_insert_tail.exit
  ret void
}